target datalayout = "e-m:e-p270:32:32-p271:32:32-p272:64:64-i64:64-i128:128-f80:128-n8:16:32:64-S128"
target triple = "x86_64-pc-linux-gnu"

%class.BasicHeapWalkContext = type { %class.HeapWalkContext, ptr, ptr, ptr, ptr, i64 }
%class.HeapWalkContext = type { i8 }
%class.AdvancedHeapWalkContext = type { %class.HeapWalkContext, i32, ptr, ptr }
%class.GrowableArrayBase = type { i32, i32 }
%class.GrowableArrayMetadata = type { i64 }
%struct.jvmtiHeapCallbacks = type { ptr, ptr, ptr, ptr, ptr, ptr, ptr, ptr, ptr, ptr, ptr, ptr, ptr, ptr, ptr, ptr }
%class.VM_Operation = type { ptr, ptr }
%class.Handle = type { ptr }
%class.VM_HeapWalkOperation = type <{ %class.VM_Operation, i8, [7 x i8], ptr, %class.Handle, ptr, %class.ObjectBitSet, ptr, i8, i8, i8, i8, [4 x i8] }>
%class.ObjectBitSet = type { %class.ResizeableResourceHashtable.15, ptr, ptr, i64 }
%class.ResizeableResourceHashtable.15 = type { %class.ResourceHashtableBase.base.18, i32 }
%class.ResourceHashtableBase.base.18 = type <{ %class.ResizeableResourceHashtableStorage.17, i32 }>
%class.ResizeableResourceHashtableStorage.17 = type { i32, ptr }
%class.GrowableArrayView.21 = type { %class.GrowableArrayBase, ptr }
%class.GrowableArray.19 = type { %class.GrowableArrayWithAllocator.20, %class.GrowableArrayMetadata }
%class.GrowableArrayWithAllocator.20 = type { %class.GrowableArrayView.21 }
%class.ResourceHashtableBase.16 = type <{ %class.ResizeableResourceHashtableStorage.17, i32, [4 x i8] }>

@_ZN15CallbackInvoker15_heap_walk_typeE = hidden global i32 0, align 4
@_ZN15CallbackInvoker14_basic_contextE = hidden global %class.BasicHeapWalkContext zeroinitializer, align 8
@_ZN15CallbackInvoker17_advanced_contextE = hidden global %class.AdvancedHeapWalkContext zeroinitializer, align 8
@_ZN15CallbackInvoker8_tag_mapE = hidden global ptr null, align 8
@_ZN15CallbackInvoker10_user_dataE = hidden global ptr null, align 8
@_ZN15CallbackInvoker12_visit_stackE = hidden global ptr null, align 8
@_ZN15CallbackInvoker7_bitsetE = hidden global ptr null, align 8
@_ZTV12VM_Operation = external unnamed_addr constant { [12 x ptr] }, align 8

; Function Attrs: mustprogress nounwind uwtable
define linkonce_odr hidden void @_ZN17GrowableArrayBaseC2Eii(ptr noundef nonnull align 4 dereferenceable(8) %0, i32 noundef %1, i32 noundef %2) unnamed_addr #1 comdat align 2 {
  %4 = alloca ptr, align 8
  %5 = alloca i32, align 4
  %6 = alloca i32, align 4
  store ptr %0, ptr %4, align 8
  store i32 %1, ptr %5, align 4
  store i32 %2, ptr %6, align 4
  %7 = load ptr, ptr %4, align 8
  %8 = getelementptr inbounds %class.GrowableArrayBase, ptr %7, i32 0, i32 0
  %9 = load i32, ptr %6, align 4
  store i32 %9, ptr %8, align 4
  %10 = getelementptr inbounds %class.GrowableArrayBase, ptr %7, i32 0, i32 1
  %11 = load i32, ptr %5, align 4
  store i32 %11, ptr %10, align 4
  ret void
}

; Function Attrs: mustprogress nounwind uwtable
define linkonce_odr hidden noundef ptr @_ZN34ResizeableResourceHashtableStorageImP11CHeapBitMapLN6AnyObj15allocation_typeE2EL8MEMFLAGS23EE11alloc_tableEj(ptr noundef nonnull align 8 dereferenceable(16) %0, i32 noundef %1) #1 comdat align 2 {
  %3 = alloca ptr, align 8
  %4 = alloca i32, align 4
  %5 = alloca ptr, align 8
  store ptr %0, ptr %3, align 8
  store i32 %1, ptr %4, align 4
  %6 = load i32, ptr %4, align 4
  %7 = zext i32 %6 to i64
  %8 = mul i64 %7, 8
  %9 = call noundef ptr @_Z12AllocateHeapm8MEMFLAGSN17AllocFailStrategy13AllocFailEnumE(i64 noundef %8, i8 noundef zeroext 23, i32 noundef 0)
  store ptr %9, ptr %5, align 8
  %10 = load ptr, ptr %5, align 8
  %11 = load i32, ptr %4, align 4
  %12 = zext i32 %11 to i64
  %13 = mul i64 %12, 8
  call void @llvm.memset.p0.i64(ptr align 8 %10, i8 0, i64 %13, i1 false)
  %14 = load ptr, ptr %5, align 8
  ret ptr %14
}

; Function Attrs: mustprogress nounwind uwtable
define linkonce_odr hidden noundef i64 @_ZN21GrowableArrayMetadata4bitsE8MEMFLAGS(i8 noundef zeroext %0) #1 comdat align 2 {
  %2 = alloca i8, align 1
  store i8 %0, ptr %2, align 1
  %3 = load i8, ptr %2, align 1
  %4 = zext i8 %3 to i64
  %5 = shl i64 %4, 1
  %6 = or i64 %5, 1
  ret i64 %6
}

; Function Attrs: mustprogress nounwind uwtable
define linkonce_odr hidden void @_ZN17GrowableArrayViewIP7oopDescEC2EPS1_ii(ptr noundef nonnull align 8 dereferenceable(16) %0, ptr noundef %1, i32 noundef %2, i32 noundef %3) unnamed_addr #1 comdat align 2 {
  %5 = alloca ptr, align 8
  %6 = alloca ptr, align 8
  %7 = alloca i32, align 4
  %8 = alloca i32, align 4
  store ptr %0, ptr %5, align 8
  store ptr %1, ptr %6, align 8
  store i32 %2, ptr %7, align 4
  store i32 %3, ptr %8, align 4
  %9 = load ptr, ptr %5, align 8
  %10 = load i32, ptr %7, align 4
  %11 = load i32, ptr %8, align 4
  call void @_ZN17GrowableArrayBaseC2Eii(ptr noundef nonnull align 4 dereferenceable(8) %9, i32 noundef %10, i32 noundef %11)
  %12 = getelementptr inbounds %class.GrowableArrayView.21, ptr %9, i32 0, i32 1
  %13 = load ptr, ptr %6, align 8
  store ptr %13, ptr %12, align 8
  ret void
}

; Function Attrs: mustprogress nounwind uwtable
define linkonce_odr hidden void @_ZN34ResizeableResourceHashtableStorageImP11CHeapBitMapLN6AnyObj15allocation_typeE2EL8MEMFLAGS23EEC2Ej(ptr noundef nonnull align 8 dereferenceable(16) %0, i32 noundef %1) unnamed_addr #1 comdat align 2 {
  %3 = alloca ptr, align 8
  %4 = alloca i32, align 4
  store ptr %0, ptr %3, align 8
  store i32 %1, ptr %4, align 4
  %5 = load ptr, ptr %3, align 8
  %6 = load i32, ptr %4, align 4
  %7 = getelementptr inbounds %class.ResizeableResourceHashtableStorage.17, ptr %5, i32 0, i32 0
  store i32 %6, ptr %7, align 8
  %8 = load i32, ptr %4, align 4
  %9 = call noundef ptr @_ZN34ResizeableResourceHashtableStorageImP11CHeapBitMapLN6AnyObj15allocation_typeE2EL8MEMFLAGS23EE11alloc_tableEj(ptr noundef nonnull align 8 dereferenceable(16) %5, i32 noundef %8)
  %10 = getelementptr inbounds %class.ResizeableResourceHashtableStorage.17, ptr %5, i32 0, i32 1
  store ptr %9, ptr %10, align 8
  ret void
}

; Function Attrs: mustprogress nounwind uwtable
define linkonce_odr hidden void @_ZNK13GrowableArrayIP7oopDescE11init_checksEv(ptr noundef nonnull align 8 dereferenceable(24) %0) #1 comdat align 2 {
  %2 = alloca ptr, align 8
  store ptr %0, ptr %2, align 8
  ret void
}

; Function Attrs: mustprogress nounwind uwtable
define linkonce_odr hidden void @_ZN21GrowableArrayMetadataC2E8MEMFLAGS(ptr noundef nonnull align 8 dereferenceable(8) %0, i8 noundef zeroext %1) unnamed_addr #1 comdat align 2 {
  %3 = alloca ptr, align 8
  %4 = alloca i8, align 1
  store ptr %0, ptr %3, align 8
  store i8 %1, ptr %4, align 1
  %5 = load ptr, ptr %3, align 8
  %6 = getelementptr inbounds %class.GrowableArrayMetadata, ptr %5, i32 0, i32 0
  %7 = load i8, ptr %4, align 1
  %8 = call noundef i64 @_ZN21GrowableArrayMetadata4bitsE8MEMFLAGS(i8 noundef zeroext %7)
  store i64 %8, ptr %6, align 8
  ret void
}

; Function Attrs: mustprogress nounwind uwtable
define linkonce_odr hidden void @_ZN26GrowableArrayWithAllocatorIP7oopDesc13GrowableArrayIS1_EEC2EPS1_i(ptr noundef nonnull align 8 dereferenceable(16) %0, ptr noundef %1, i32 noundef %2) unnamed_addr #1 comdat align 2 {
  %4 = alloca ptr, align 8
  %5 = alloca ptr, align 8
  %6 = alloca i32, align 4
  %7 = alloca i32, align 4
  store ptr %0, ptr %4, align 8
  store ptr %1, ptr %5, align 8
  store i32 %2, ptr %6, align 4
  %8 = load ptr, ptr %4, align 8
  %9 = load ptr, ptr %5, align 8
  %10 = load i32, ptr %6, align 4
  call void @_ZN17GrowableArrayViewIP7oopDescEC2EPS1_ii(ptr noundef nonnull align 8 dereferenceable(16) %8, ptr noundef %9, i32 noundef %10, i32 noundef 0)
  store i32 0, ptr %7, align 4
  br label %11

11:                                               ; preds = %20, %3
  %12 = load i32, ptr %7, align 4
  %13 = load i32, ptr %6, align 4
  %14 = icmp slt i32 %12, %13
  br i1 %14, label %15, label %23

15:                                               ; preds = %11
  %16 = load ptr, ptr %5, align 8
  %17 = load i32, ptr %7, align 4
  %18 = sext i32 %17 to i64
  %19 = getelementptr inbounds ptr, ptr %16, i64 %18
  store ptr null, ptr %19, align 8
  br label %20

20:                                               ; preds = %15
  %21 = load i32, ptr %7, align 4
  %22 = add nsw i32 %21, 1
  store i32 %22, ptr %7, align 4
  br label %11, !llvm.loop !56

23:                                               ; preds = %11
  ret void
}

; Function Attrs: mustprogress nounwind uwtable
define linkonce_odr hidden noundef ptr @_ZN13GrowableArrayIP7oopDescE8allocateEi8MEMFLAGS(i32 noundef %0, i8 noundef zeroext %1) #1 comdat align 2 {
  %3 = alloca i32, align 4
  %4 = alloca i8, align 1
  store i32 %0, ptr %3, align 4
  store i8 %1, ptr %4, align 1
  %5 = load i32, ptr %3, align 4
  %6 = load i8, ptr %4, align 1
  %7 = call noundef ptr @_ZN27GrowableArrayCHeapAllocator8allocateEii8MEMFLAGS(i32 noundef %5, i32 noundef 8, i8 noundef zeroext %6)
  ret ptr %7
}

; Function Attrs: mustprogress nounwind uwtable
define linkonce_odr hidden void @_ZN21ResourceHashtableBaseI34ResizeableResourceHashtableStorageImP11CHeapBitMapLN6AnyObj15allocation_typeE2EL8MEMFLAGS23EEmS2_LS4_2ELS5_23EXadL_ZN12ObjectBitSetILS5_23EE12hash_segmentERKmEEXadL_Z16primitive_equalsImEbRKT_SE_EEEC2Ej(ptr noundef nonnull align 8 dereferenceable(20) %0, i32 noundef %1) unnamed_addr #1 comdat align 2 {
  %3 = alloca ptr, align 8
  %4 = alloca i32, align 4
  store ptr %0, ptr %3, align 8
  store i32 %1, ptr %4, align 4
  %5 = load ptr, ptr %3, align 8
  %6 = load i32, ptr %4, align 4
  call void @_ZN34ResizeableResourceHashtableStorageImP11CHeapBitMapLN6AnyObj15allocation_typeE2EL8MEMFLAGS23EEC2Ej(ptr noundef nonnull align 8 dereferenceable(16) %5, i32 noundef %6)
  %7 = getelementptr inbounds %class.ResourceHashtableBase.16, ptr %5, i32 0, i32 1
  store i32 0, ptr %7, align 8
  ret void
}

; Function Attrs: mustprogress nounwind uwtable
define linkonce_odr hidden void @_ZN15HeapWalkContext10invalidateEv(ptr noundef nonnull align 1 dereferenceable(1) %0) #1 comdat align 2 {
  %2 = alloca ptr, align 8
  store ptr %0, ptr %2, align 8
  %3 = load ptr, ptr %2, align 8
  %4 = getelementptr inbounds %class.HeapWalkContext, ptr %3, i32 0, i32 0
  store i8 0, ptr %4, align 1
  ret void
}

; Function Attrs: mustprogress nounwind uwtable
define linkonce_odr hidden void @_ZN13GrowableArrayIP7oopDescEC2Ei8MEMFLAGS(ptr noundef nonnull align 8 dereferenceable(24) %0, i32 noundef %1, i8 noundef zeroext %2) unnamed_addr #1 comdat align 2 {
  %4 = alloca ptr, align 8
  %5 = alloca i32, align 4
  %6 = alloca i8, align 1
  store ptr %0, ptr %4, align 8
  store i32 %1, ptr %5, align 4
  store i8 %2, ptr %6, align 1
  %7 = load ptr, ptr %4, align 8
  %8 = load i32, ptr %5, align 4
  %9 = load i8, ptr %6, align 1
  %10 = call noundef ptr @_ZN13GrowableArrayIP7oopDescE8allocateEi8MEMFLAGS(i32 noundef %8, i8 noundef zeroext %9)
  %11 = load i32, ptr %5, align 4
  call void @_ZN26GrowableArrayWithAllocatorIP7oopDesc13GrowableArrayIS1_EEC2EPS1_i(ptr noundef nonnull align 8 dereferenceable(16) %7, ptr noundef %10, i32 noundef %11)
  %12 = getelementptr inbounds %class.GrowableArray.19, ptr %7, i32 0, i32 1
  %13 = load i8, ptr %6, align 1
  call void @_ZN21GrowableArrayMetadataC2E8MEMFLAGS(ptr noundef nonnull align 8 dereferenceable(8) %12, i8 noundef zeroext %13)
  call void @_ZNK13GrowableArrayIP7oopDescE11init_checksEv(ptr noundef nonnull align 8 dereferenceable(24) %7)
  ret void
}

; Function Attrs: mustprogress nounwind uwtable
define linkonce_odr hidden void @_ZN27ResizeableResourceHashtableImP11CHeapBitMapLN6AnyObj15allocation_typeE2EL8MEMFLAGS23EXadL_ZN12ObjectBitSetILS4_23EE12hash_segmentERKmEEXadL_Z16primitive_equalsImEbRKT_SC_EEEC2Ejj(ptr noundef nonnull align 8 dereferenceable(24) %0, i32 noundef %1, i32 noundef %2) unnamed_addr #1 comdat align 2 {
  %4 = alloca ptr, align 8
  %5 = alloca i32, align 4
  %6 = alloca i32, align 4
  store ptr %0, ptr %4, align 8
  store i32 %1, ptr %5, align 4
  store i32 %2, ptr %6, align 4
  %7 = load ptr, ptr %4, align 8
  %8 = load i32, ptr %5, align 4
  call void @_ZN21ResourceHashtableBaseI34ResizeableResourceHashtableStorageImP11CHeapBitMapLN6AnyObj15allocation_typeE2EL8MEMFLAGS23EEmS2_LS4_2ELS5_23EXadL_ZN12ObjectBitSetILS5_23EE12hash_segmentERKmEEXadL_Z16primitive_equalsImEbRKT_SE_EEEC2Ej(ptr noundef nonnull align 8 dereferenceable(20) %7, i32 noundef %8)
  %9 = getelementptr inbounds %class.ResizeableResourceHashtable.15, ptr %7, i32 0, i32 1
  %10 = load i32, ptr %6, align 4
  store i32 %10, ptr %9, align 4
  ret void
}

; Function Attrs: mustprogress nounwind uwtable
define hidden void @_ZN15CallbackInvoker33initialize_for_advanced_heap_walkEP11JvmtiTagMapP13GrowableArrayIP7oopDescEPKv23AdvancedHeapWalkContextP12ObjectBitSetIL8MEMFLAGS23EE(ptr noundef %0, ptr noundef %1, ptr noundef %2, ptr noundef byval(%class.AdvancedHeapWalkContext) align 8 %3, ptr noundef %4) #1 align 2 {
  %6 = alloca ptr, align 8
  %7 = alloca ptr, align 8
  %8 = alloca ptr, align 8
  %9 = alloca ptr, align 8
  store ptr %0, ptr %6, align 8
  store ptr %1, ptr %7, align 8
  store ptr %2, ptr %8, align 8
  store ptr %4, ptr %9, align 8
  %10 = load ptr, ptr %6, align 8
  store ptr %10, ptr @_ZN15CallbackInvoker8_tag_mapE, align 8
  %11 = load ptr, ptr %7, align 8
  store ptr %11, ptr @_ZN15CallbackInvoker12_visit_stackE, align 8
  %12 = load ptr, ptr %8, align 8
  store ptr %12, ptr @_ZN15CallbackInvoker10_user_dataE, align 8
  call void @llvm.memcpy.p0.p0.i64(ptr align 8 @_ZN15CallbackInvoker17_advanced_contextE, ptr align 8 %3, i64 24, i1 false)
  call void @_ZN15HeapWalkContext10invalidateEv(ptr noundef nonnull align 1 dereferenceable(1) @_ZN15CallbackInvoker14_basic_contextE)
  store i32 1, ptr @_ZN15CallbackInvoker15_heap_walk_typeE, align 4
  %13 = load ptr, ptr %9, align 8
  store ptr %13, ptr @_ZN15CallbackInvoker7_bitsetE, align 8
  ret void
}

; Function Attrs: mustprogress nounwind uwtable
define linkonce_odr hidden noundef ptr @_ZN20VM_HeapWalkOperation18create_visit_stackEv(ptr noundef nonnull align 8 dereferenceable(108) %0) #1 comdat align 2 {
  %2 = alloca ptr, align 8
  store ptr %0, ptr %2, align 8
  %3 = call noundef ptr @_ZN6AnyObjnwEm8MEMFLAGS(i64 noundef 24, i8 noundef zeroext 23) #9
  %4 = icmp eq ptr %3, null
  br i1 %4, label %6, label %5

5:                                                ; preds = %1
  call void @_ZN13GrowableArrayIP7oopDescEC2Ei8MEMFLAGS(ptr noundef nonnull align 8 dereferenceable(24) %3, i32 noundef 4000, i8 noundef zeroext 23)
  br label %6

6:                                                ; preds = %5, %1
  %7 = phi ptr [ %3, %5 ], [ null, %1 ]
  ret ptr %7
}

; Function Attrs: mustprogress nounwind uwtable
define linkonce_odr hidden noundef ptr @_ZNK23AdvancedHeapWalkContext31string_primitive_value_callbackEv(ptr noundef nonnull align 8 dereferenceable(24) %0) #1 comdat align 2 {
  %2 = alloca ptr, align 8
  store ptr %0, ptr %2, align 8
  %3 = load ptr, ptr %2, align 8
  %4 = getelementptr inbounds %class.AdvancedHeapWalkContext, ptr %3, i32 0, i32 3
  %5 = load ptr, ptr %4, align 8
  %6 = getelementptr inbounds %struct.jvmtiHeapCallbacks, ptr %5, i32 0, i32 4
  %7 = load ptr, ptr %6, align 8
  ret ptr %7
}

; Function Attrs: mustprogress nounwind uwtable
define linkonce_odr hidden noundef ptr @_ZNK23AdvancedHeapWalkContext30array_primitive_value_callbackEv(ptr noundef nonnull align 8 dereferenceable(24) %0) #1 comdat align 2 {
  %2 = alloca ptr, align 8
  store ptr %0, ptr %2, align 8
  %3 = load ptr, ptr %2, align 8
  %4 = getelementptr inbounds %class.AdvancedHeapWalkContext, ptr %3, i32 0, i32 3
  %5 = load ptr, ptr %4, align 8
  %6 = getelementptr inbounds %struct.jvmtiHeapCallbacks, ptr %5, i32 0, i32 3
  %7 = load ptr, ptr %6, align 8
  ret ptr %7
}

; Function Attrs: mustprogress nounwind uwtable
define linkonce_odr hidden noundef ptr @_ZNK23AdvancedHeapWalkContext24primitive_field_callbackEv(ptr noundef nonnull align 8 dereferenceable(24) %0) #1 comdat align 2 {
  %2 = alloca ptr, align 8
  store ptr %0, ptr %2, align 8
  %3 = load ptr, ptr %2, align 8
  %4 = getelementptr inbounds %class.AdvancedHeapWalkContext, ptr %3, i32 0, i32 3
  %5 = load ptr, ptr %4, align 8
  %6 = getelementptr inbounds %struct.jvmtiHeapCallbacks, ptr %5, i32 0, i32 2
  %7 = load ptr, ptr %6, align 8
  ret ptr %7
}

; Function Attrs: mustprogress nounwind uwtable
define linkonce_odr hidden void @_ZN12ObjectBitSetIL8MEMFLAGS23EEC2Ev(ptr noundef nonnull align 8 dereferenceable(48) %0) unnamed_addr #1 comdat align 2 {
  %2 = alloca ptr, align 8
  store ptr %0, ptr %2, align 8
  %3 = load ptr, ptr %2, align 8
  %4 = getelementptr inbounds %class.ObjectBitSet, ptr %3, i32 0, i32 0
  call void @_ZN27ResizeableResourceHashtableImP11CHeapBitMapLN6AnyObj15allocation_typeE2EL8MEMFLAGS23EXadL_ZN12ObjectBitSetILS4_23EE12hash_segmentERKmEEXadL_Z16primitive_equalsImEbRKT_SC_EEEC2Ejj(ptr noundef nonnull align 8 dereferenceable(24) %4, i32 noundef 32, i32 noundef 8192)
  %5 = getelementptr inbounds %class.ObjectBitSet, ptr %3, i32 0, i32 1
  store ptr null, ptr %5, align 8
  %6 = getelementptr inbounds %class.ObjectBitSet, ptr %3, i32 0, i32 2
  store ptr null, ptr %6, align 8
  %7 = getelementptr inbounds %class.ObjectBitSet, ptr %3, i32 0, i32 3
  store i64 -1, ptr %7, align 8
  ret void
}

; Function Attrs: mustprogress nounwind uwtable
define linkonce_odr hidden void @_ZN6HandleC2Ev(ptr noundef nonnull align 8 dereferenceable(8) %0) unnamed_addr #1 comdat align 2 {
  %2 = alloca ptr, align 8
  store ptr %0, ptr %2, align 8
  %3 = load ptr, ptr %2, align 8
  %4 = getelementptr inbounds %class.Handle, ptr %3, i32 0, i32 0
  store ptr null, ptr %4, align 8
  ret void
}

; Function Attrs: mustprogress nounwind uwtable
define linkonce_odr hidden void @_ZN12VM_OperationC2Ev(ptr noundef nonnull align 8 dereferenceable(16) %0) unnamed_addr #1 comdat align 2 {
  %2 = alloca ptr, align 8
  store ptr %0, ptr %2, align 8
  %3 = load ptr, ptr %2, align 8
  store ptr getelementptr inbounds inrange(-16, 80) ({ [12 x ptr] }, ptr @_ZTV12VM_Operation, i32 0, i32 0, i32 2), ptr %3, align 8
  %4 = getelementptr inbounds %class.VM_Operation, ptr %3, i32 0, i32 1
  store ptr null, ptr %4, align 8
  ret void
}

; Function Attrs: mustprogress nounwind uwtable
define hidden void @_ZN20VM_HeapWalkOperationC2EP11JvmtiTagMap6Handle23AdvancedHeapWalkContextPKvP13GrowableArrayIlE(ptr noundef nonnull align 8 dereferenceable(108) %0, ptr noundef %1, ptr %2, ptr noundef byval(%class.AdvancedHeapWalkContext) align 8 %3, ptr noundef %4, ptr noundef %5) unnamed_addr #1 align 2 {
  %7 = alloca %class.Handle, align 8
  %8 = alloca ptr, align 8
  %9 = alloca ptr, align 8
  %10 = alloca ptr, align 8
  %11 = alloca ptr, align 8
  %12 = alloca %class.AdvancedHeapWalkContext, align 8
  %13 = getelementptr inbounds %class.Handle, ptr %7, i32 0, i32 0
  store ptr %2, ptr %13, align 8
  store ptr %0, ptr %8, align 8
  store ptr %1, ptr %9, align 8
  store ptr %4, ptr %10, align 8
  store ptr %5, ptr %11, align 8
  %14 = load ptr, ptr %8, align 8
  call void @_ZN12VM_OperationC2Ev(ptr noundef nonnull align 8 dereferenceable(16) %14)
  store ptr getelementptr inbounds inrange(-16, 80) ({ [12 x ptr] }, ptr @_ZTV20VM_HeapWalkOperation, i32 0, i32 0, i32 2), ptr %14, align 8
  %15 = getelementptr inbounds %class.VM_HeapWalkOperation, ptr %14, i32 0, i32 4
  call void @_ZN6HandleC2Ev(ptr noundef nonnull align 8 dereferenceable(8) %15)
  %16 = getelementptr inbounds %class.VM_HeapWalkOperation, ptr %14, i32 0, i32 6
  call void @_ZN12ObjectBitSetIL8MEMFLAGS23EEC2Ev(ptr noundef nonnull align 8 dereferenceable(48) %16)
  %17 = getelementptr inbounds %class.VM_HeapWalkOperation, ptr %14, i32 0, i32 1
  store i8 1, ptr %17, align 8
  %18 = load ptr, ptr %9, align 8
  %19 = getelementptr inbounds %class.VM_HeapWalkOperation, ptr %14, i32 0, i32 3
  store ptr %18, ptr %19, align 8
  %20 = getelementptr inbounds %class.VM_HeapWalkOperation, ptr %14, i32 0, i32 4
  call void @llvm.memcpy.p0.p0.i64(ptr align 8 %20, ptr align 8 %7, i64 8, i1 false)
  %21 = getelementptr inbounds %class.VM_HeapWalkOperation, ptr %14, i32 0, i32 8
  store i8 1, ptr %21, align 8
  %22 = call noundef ptr @_ZNK23AdvancedHeapWalkContext24primitive_field_callbackEv(ptr noundef nonnull align 8 dereferenceable(24) %3)
  %23 = icmp ne ptr %22, null
  %24 = getelementptr inbounds %class.VM_HeapWalkOperation, ptr %14, i32 0, i32 9
  %25 = zext i1 %23 to i8
  store i8 %25, ptr %24, align 1
  %26 = call noundef ptr @_ZNK23AdvancedHeapWalkContext30array_primitive_value_callbackEv(ptr noundef nonnull align 8 dereferenceable(24) %3)
  %27 = icmp ne ptr %26, null
  %28 = getelementptr inbounds %class.VM_HeapWalkOperation, ptr %14, i32 0, i32 10
  %29 = zext i1 %27 to i8
  store i8 %29, ptr %28, align 2
  %30 = call noundef ptr @_ZNK23AdvancedHeapWalkContext31string_primitive_value_callbackEv(ptr noundef nonnull align 8 dereferenceable(24) %3)
  %31 = icmp ne ptr %30, null
  %32 = getelementptr inbounds %class.VM_HeapWalkOperation, ptr %14, i32 0, i32 11
  %33 = zext i1 %31 to i8
  store i8 %33, ptr %32, align 1
  %34 = call noundef ptr @_ZN20VM_HeapWalkOperation18create_visit_stackEv(ptr noundef nonnull align 8 dereferenceable(108) %14)
  %35 = getelementptr inbounds %class.VM_HeapWalkOperation, ptr %14, i32 0, i32 5
  store ptr %34, ptr %35, align 8
  %36 = load ptr, ptr %11, align 8
  %37 = getelementptr inbounds %class.VM_HeapWalkOperation, ptr %14, i32 0, i32 7
  store ptr %36, ptr %37, align 8
  %38 = load ptr, ptr %9, align 8
  %39 = getelementptr inbounds %class.VM_HeapWalkOperation, ptr %14, i32 0, i32 5
  %40 = load ptr, ptr %39, align 8
  %41 = load ptr, ptr %10, align 8
  call void @llvm.memcpy.p0.p0.i64(ptr align 8 %12, ptr align 8 %3, i64 24, i1 false)
  %42 = getelementptr inbounds %class.VM_HeapWalkOperation, ptr %14, i32 0, i32 6
  call void @_ZN15CallbackInvoker33initialize_for_advanced_heap_walkEP11JvmtiTagMapP13GrowableArrayIP7oopDescEPKv23AdvancedHeapWalkContextP12ObjectBitSetIL8MEMFLAGS23EE(ptr noundef %38, ptr noundef %40, ptr noundef %41, ptr noundef byval(%class.AdvancedHeapWalkContext) align 8 %12, ptr noundef %42)
  ret void
}