; Function Attrs: mustprogress nounwind uwtable
define hidden void @_ZN20VM_HeapWalkOperationC2EP11JvmtiTagMap6Handle23AdvancedHeapWalkContextPKvP13GrowableArrayIlE(ptr noundef nonnull align 8 dereferenceable(108) %0, ptr noundef %1, ptr %2, ptr nocapture noundef readonly byval(%class.AdvancedHeapWalkContext) align 8 %3, ptr noundef %4, ptr noundef %5) unnamed_addr #0 align 2 {
  %7 = getelementptr inbounds i8, ptr %0, i64 8
  store ptr null, ptr %7, align 8
  store ptr getelementptr inbounds inrange(-16, 80) (i8, ptr @_ZTV20VM_HeapWalkOperation, i64 16), ptr %0, align 8
  %8 = getelementptr inbounds i8, ptr %0, i64 32
  store ptr null, ptr %8, align 8
  %9 = getelementptr inbounds i8, ptr %0, i64 48
  store i32 32, ptr %9, align 8
  %10 = tail call noundef ptr @_Z12AllocateHeapm8MEMFLAGSN17AllocFailStrategy13AllocFailEnumE(i64 noundef 256, i8 noundef zeroext 23, i32 noundef 0) #14
  tail call void @llvm.memset.p0.i64(ptr noundef nonnull align 8 dereferenceable(256) %10, i8 0, i64 256, i1 false)
  %11 = getelementptr inbounds i8, ptr %0, i64 56
  store ptr %10, ptr %11, align 8
  %12 = getelementptr inbounds i8, ptr %0, i64 64
  store i32 0, ptr %12, align 8
  %13 = getelementptr inbounds i8, ptr %0, i64 68
  store i32 8192, ptr %13, align 4
  %14 = getelementptr inbounds i8, ptr %0, i64 72
  %15 = getelementptr inbounds i8, ptr %0, i64 88
  tail call void @llvm.memset.p0.i64(ptr noundef nonnull align 8 dereferenceable(16) %14, i8 0, i64 16, i1 false)
  store i64 -1, ptr %15, align 8
  %16 = getelementptr inbounds i8, ptr %0, i64 16
  store i8 1, ptr %16, align 8
  %17 = getelementptr inbounds i8, ptr %0, i64 24
  store ptr %1, ptr %17, align 8
  store ptr %2, ptr %8, align 8
  %18 = getelementptr inbounds i8, ptr %0, i64 104
  store i8 1, ptr %18, align 8
  %19 = getelementptr inbounds i8, ptr %3, i64 16
  %20 = load ptr, ptr %19, align 8
  %21 = getelementptr inbounds i8, ptr %20, i64 16
  %22 = load ptr, ptr %21, align 8
  %23 = icmp ne ptr %22, null
  %24 = getelementptr inbounds i8, ptr %0, i64 105
  %25 = zext i1 %23 to i8
  store i8 %25, ptr %24, align 1
  %26 = getelementptr inbounds i8, ptr %20, i64 24
  %27 = load ptr, ptr %26, align 8
  %28 = icmp ne ptr %27, null
  %29 = getelementptr inbounds i8, ptr %0, i64 106
  %30 = zext i1 %28 to i8
  store i8 %30, ptr %29, align 2
  %31 = getelementptr inbounds i8, ptr %20, i64 32
  %32 = load ptr, ptr %31, align 8
  %33 = icmp ne ptr %32, null
  %34 = getelementptr inbounds i8, ptr %0, i64 107
  %35 = zext i1 %33 to i8
  store i8 %35, ptr %34, align 1
  %36 = tail call noundef ptr @_ZN6AnyObjnwEm8MEMFLAGS(i64 noundef 24, i8 noundef zeroext 23) #14
  %37 = icmp eq ptr %36, null
  br i1 %37, label %_ZN20VM_HeapWalkOperation18create_visit_stackEv.exit, label %38

38:                                               ; preds = %6
  %39 = tail call noundef ptr @_ZN27GrowableArrayCHeapAllocator8allocateEii8MEMFLAGS(i32 noundef 4000, i32 noundef 8, i8 noundef zeroext 23) #14
  store i32 0, ptr %36, align 4
  %40 = getelementptr inbounds i8, ptr %36, i64 4
  store i32 4000, ptr %40, align 4
  %41 = getelementptr inbounds i8, ptr %36, i64 8
  store ptr %39, ptr %41, align 8
  tail call void @llvm.memset.p0.i64(ptr noundef nonnull align 8 dereferenceable(32000) %39, i8 0, i64 32000, i1 false)
  %42 = getelementptr inbounds i8, ptr %36, i64 16
  store i64 47, ptr %42, align 8
  br label %_ZN20VM_HeapWalkOperation18create_visit_stackEv.exit

_ZN20VM_HeapWalkOperation18create_visit_stackEv.exit: ; preds = %6, %38
  %43 = getelementptr inbounds i8, ptr %0, i64 40
  store ptr %36, ptr %43, align 8
  %44 = getelementptr inbounds i8, ptr %0, i64 96
  store ptr %5, ptr %44, align 8
  store ptr %1, ptr @_ZN15CallbackInvoker8_tag_mapE, align 8
  store ptr %36, ptr @_ZN15CallbackInvoker12_visit_stackE, align 8
  store ptr %4, ptr @_ZN15CallbackInvoker10_user_dataE, align 8
  call void @llvm.memcpy.p0.p0.i64(ptr noundef nonnull align 8 dereferenceable(24) @_ZN15CallbackInvoker17_advanced_contextE, ptr noundef nonnull align 8 dereferenceable(24) %3, i64 24, i1 false)
  store i8 0, ptr @_ZN15CallbackInvoker14_basic_contextE, align 8
  store i32 1, ptr @_ZN15CallbackInvoker15_heap_walk_typeE, align 4
  store ptr %9, ptr @_ZN15CallbackInvoker7_bitsetE, align 8
  ret void
}